; Function Attrs: mustprogress nofree norecurse nosync nounwind willreturn memory(read, inaccessiblemem: none) uwtable
define internal noundef nonnull ptr @has_split_table(ptr readnone captures(none) %0, ptr noundef readonly captures(none) %1) #3 {
  %3 = getelementptr i8, ptr %1, i64 8
  %.val = load ptr, ptr %3, align 8, !tbaa !46
  %4 = getelementptr i8, ptr %.val, i64 168
  %.val4 = load i64, ptr %4, align 8, !tbaa !49
  %5 = and i64 %.val4, 536870912
  %.not = icmp eq i64 %5, 0
  br i1 %.not, label %9, label %6

6:                                                ; preds = %2
  %7 = getelementptr inbounds nuw i8, ptr %1, i64 40
  %8 = load ptr, ptr %7, align 8, !tbaa !262
  %.not3 = icmp eq ptr %8, null
  br i1 %.not3, label %9, label %10

9:                                                ; preds = %6, %2
  br label %10

10:                                               ; preds = %6, %9
  %.0 = phi ptr [ @_Py_FalseStruct, %9 ], [ @_Py_TrueStruct, %6 ]
  ret ptr %.0
}